target datalayout = "e-m:e-p270:32:32-p271:32:32-p272:64:64-i64:64-i128:128-f80:128-n8:16:32:64-S128"
target triple = "x86_64-pc-linux-gnu"

%struct.LOCKTAG = type { i32, i32, i32, i16, i8, i8 }

; Function Attrs: nounwind uwtable
define dso_local void @SpeculativeInsertionWait(i32 noundef %0, i32 noundef %1) #0 {
  %3 = alloca i32, align 4
  %4 = alloca i32, align 4
  %5 = alloca %struct.LOCKTAG, align 4
  store i32 %0, ptr %3, align 4
  store i32 %1, ptr %4, align 4
  call void @llvm.lifetime.start.p0(i64 16, ptr %5) #6
  %6 = load i32, ptr %3, align 4
  %7 = getelementptr inbounds nuw %struct.LOCKTAG, ptr %5, i32 0, i32 0
  store i32 %6, ptr %7, align 4
  %8 = load i32, ptr %4, align 4
  %9 = getelementptr inbounds nuw %struct.LOCKTAG, ptr %5, i32 0, i32 1
  store i32 %8, ptr %9, align 4
  %10 = getelementptr inbounds nuw %struct.LOCKTAG, ptr %5, i32 0, i32 2
  store i32 0, ptr %10, align 4
  %11 = getelementptr inbounds nuw %struct.LOCKTAG, ptr %5, i32 0, i32 3
  store i16 0, ptr %11, align 4
  %12 = getelementptr inbounds nuw %struct.LOCKTAG, ptr %5, i32 0, i32 4
  store i8 7, ptr %12, align 2
  %13 = getelementptr inbounds nuw %struct.LOCKTAG, ptr %5, i32 0, i32 5
  store i8 1, ptr %13, align 1
  %14 = call i32 @LockAcquire(ptr noundef %5, i32 noundef 5, i1 noundef zeroext false, i1 noundef zeroext false)
  %15 = call zeroext i1 @LockRelease(ptr noundef %5, i32 noundef 5, i1 noundef zeroext false)
  call void @llvm.lifetime.end.p0(i64 16, ptr %5) #6
  ret void
}