; Function Attrs: nounwind uwtable
define dso_local void @SpeculativeInsertionWait(i32 noundef %0, i32 noundef %1) local_unnamed_addr #1 {
  %3 = alloca %struct.LOCKTAG, align 4
  call void @llvm.lifetime.start.p0(i64 16, ptr nonnull %3) #8
  store i32 %0, ptr %3, align 4
  %4 = getelementptr inbounds nuw i8, ptr %3, i64 4
  store i32 %1, ptr %4, align 4
  %5 = getelementptr inbounds nuw i8, ptr %3, i64 8
  store i32 0, ptr %5, align 4
  %6 = getelementptr inbounds nuw i8, ptr %3, i64 12
  store i16 0, ptr %6, align 4
  %7 = getelementptr inbounds nuw i8, ptr %3, i64 14
  store i8 7, ptr %7, align 2
  %8 = getelementptr inbounds nuw i8, ptr %3, i64 15
  store i8 1, ptr %8, align 1
  %9 = call i32 @LockAcquire(ptr noundef nonnull %3, i32 noundef 5, i1 noundef zeroext false, i1 noundef zeroext false) #8
  %10 = call zeroext i1 @LockRelease(ptr noundef nonnull %3, i32 noundef 5, i1 noundef zeroext false) #8
  call void @llvm.lifetime.end.p0(i64 16, ptr nonnull %3) #8
  ret void
}